target datalayout = "e-m:e-p270:32:32-p271:32:32-p272:64:64-i64:64-i128:128-f80:128-n8:16:32:64-S128"
target triple = "x86_64-pc-linux-gnu"

%"struct.faiss::MultiIndexQuantizer" = type { %"struct.faiss::Index.base", %"struct.faiss::ProductQuantizer" }
%"struct.faiss::Index.base" = type <{ ptr, i32, [4 x i8], i64, i8, i8, [2 x i8], i32, float }>
%"struct.faiss::ProductQuantizer" = type { %"struct.faiss::Quantizer", i64, i64, i64, i64, i8, i32, %"struct.faiss::ClusteringParameters", ptr, %"class.std::vector.0", %"class.std::vector.0", %"class.std::vector.0", %"class.std::vector.0" }
%"struct.faiss::Quantizer" = type { ptr, i64, i64 }
%"struct.faiss::ClusteringParameters" = type <{ i32, i32, i8, i8, i8, i8, i8, [3 x i8], i32, i32, i32, [4 x i8], i64, i8, i8, [6 x i8] }>
%"class.std::vector.0" = type { %"struct.std::_Vector_base.1" }
%"struct.std::_Vector_base.1" = type { %"struct.std::_Vector_base<float, std::allocator<float>>::_Vector_impl" }
%"struct.std::_Vector_base<float, std::allocator<float>>::_Vector_impl" = type { %"struct.std::_Vector_base<float, std::allocator<float>>::_Vector_impl_data" }
%"struct.std::_Vector_base<float, std::allocator<float>>::_Vector_impl_data" = type { ptr, ptr, ptr }
%"struct.faiss::Index" = type <{ ptr, i32, [4 x i8], i64, i8, i8, [2 x i8], i32, float, [4 x i8] }>
%"struct.faiss::MultiIndexQuantizer2" = type <{ %"struct.faiss::MultiIndexQuantizer", %"class.std::vector.50", i8, [7 x i8] }>
%"class.std::vector.50" = type { %"struct.std::_Vector_base.51" }
%"struct.std::_Vector_base.51" = type { %"struct.std::_Vector_base<faiss::Index *, std::allocator<faiss::Index *>>::_Vector_impl" }
%"struct.std::_Vector_base<faiss::Index *, std::allocator<faiss::Index *>>::_Vector_impl" = type { %"struct.std::_Vector_base<faiss::Index *, std::allocator<faiss::Index *>>::_Vector_impl_data" }
%"struct.std::_Vector_base<faiss::Index *, std::allocator<faiss::Index *>>::_Vector_impl_data" = type { ptr, ptr, ptr }

; Function Attrs: mustprogress nounwind uwtable
define linkonce_odr noundef nonnull align 4 dereferenceable(4) ptr @_ZNSt6vectorIfSaIfEEixEm(ptr noundef nonnull align 8 dereferenceable(24) %0, i64 noundef %1) #3 comdat align 2 {
  %3 = alloca ptr, align 8
  %4 = alloca i64, align 8
  store ptr %0, ptr %3, align 8, !tbaa !123
  store i64 %1, ptr %4, align 8, !tbaa !11
  %5 = load ptr, ptr %3, align 8
  %6 = getelementptr inbounds nuw %"struct.std::_Vector_base.1", ptr %5, i32 0, i32 0
  %7 = getelementptr inbounds nuw %"struct.std::_Vector_base<float, std::allocator<float>>::_Vector_impl_data", ptr %6, i32 0, i32 0
  %8 = load ptr, ptr %7, align 8, !tbaa !125
  %9 = load i64, ptr %4, align 8, !tbaa !11
  %10 = getelementptr inbounds nuw float, ptr %8, i64 %9
  ret ptr %10
}

; Function Attrs: mustprogress nounwind uwtable
define linkonce_odr noundef ptr @_ZN5faiss16ProductQuantizer13get_centroidsEmm(ptr noundef nonnull align 8 dereferenceable(216) %0, i64 noundef %1, i64 noundef %2) #3 comdat align 2 {
  %4 = alloca ptr, align 8
  %5 = alloca i64, align 8
  %6 = alloca i64, align 8
  store ptr %0, ptr %4, align 8, !tbaa !121
  store i64 %1, ptr %5, align 8, !tbaa !11
  store i64 %2, ptr %6, align 8, !tbaa !11
  %7 = load ptr, ptr %4, align 8
  %8 = getelementptr inbounds nuw %"struct.faiss::ProductQuantizer", ptr %7, i32 0, i32 9
  %9 = load i64, ptr %5, align 8, !tbaa !11
  %10 = getelementptr inbounds nuw %"struct.faiss::ProductQuantizer", ptr %7, i32 0, i32 4
  %11 = load i64, ptr %10, align 8, !tbaa !154
  %12 = mul i64 %9, %11
  %13 = load i64, ptr %6, align 8, !tbaa !11
  %14 = add i64 %12, %13
  %15 = getelementptr inbounds nuw %"struct.faiss::ProductQuantizer", ptr %7, i32 0, i32 3
  %16 = load i64, ptr %15, align 8, !tbaa !543
  %17 = mul i64 %14, %16
  %18 = call noundef nonnull align 4 dereferenceable(4) ptr @_ZNSt6vectorIfSaIfEEixEm(ptr noundef nonnull align 8 dereferenceable(24) %8, i64 noundef %17) #20
  ret ptr %18
}

; Function Attrs: mustprogress nounwind uwtable
define linkonce_odr noundef nonnull align 8 dereferenceable(8) ptr @_ZNSt6vectorIPN5faiss5IndexESaIS2_EEixEm(ptr noundef nonnull align 8 dereferenceable(24) %0, i64 noundef %1) #3 comdat align 2 {
  %3 = alloca ptr, align 8
  %4 = alloca i64, align 8
  store ptr %0, ptr %3, align 8, !tbaa !557
  store i64 %1, ptr %4, align 8, !tbaa !11
  %5 = load ptr, ptr %3, align 8
  %6 = getelementptr inbounds nuw %"struct.std::_Vector_base.51", ptr %5, i32 0, i32 0
  %7 = getelementptr inbounds nuw %"struct.std::_Vector_base<faiss::Index *, std::allocator<faiss::Index *>>::_Vector_impl_data", ptr %6, i32 0, i32 0
  %8 = load ptr, ptr %7, align 8, !tbaa !559
  %9 = load i64, ptr %4, align 8, !tbaa !11
  %10 = getelementptr inbounds nuw ptr, ptr %8, i64 %9
  ret ptr %10
}

; Function Attrs: mustprogress uwtable
define void @_ZN5faiss19MultiIndexQuantizer5trainElPKf(ptr noundef nonnull align 8 dereferenceable(256) %0, i64 noundef %1, ptr noundef %2) unnamed_addr #1 align 2 {
  %4 = alloca ptr, align 8
  %5 = alloca i64, align 8
  %6 = alloca ptr, align 8
  %7 = alloca i32, align 4
  store ptr %0, ptr %4, align 8, !tbaa !4
  store i64 %1, ptr %5, align 8, !tbaa !11
  store ptr %2, ptr %6, align 8, !tbaa !13
  %8 = load ptr, ptr %4, align 8
  %9 = getelementptr inbounds nuw %"struct.faiss::Index", ptr %8, i32 0, i32 4
  %10 = load i8, ptr %9, align 8, !tbaa !15, !range !21, !noundef !22
  %11 = trunc i8 %10 to i1
  %12 = getelementptr inbounds nuw %"struct.faiss::MultiIndexQuantizer", ptr %8, i32 0, i32 1
  %13 = getelementptr inbounds nuw %"struct.faiss::ProductQuantizer", ptr %12, i32 0, i32 5
  %14 = zext i1 %11 to i8
  store i8 %14, ptr %13, align 8, !tbaa !23
  %15 = getelementptr inbounds nuw %"struct.faiss::MultiIndexQuantizer", ptr %8, i32 0, i32 1
  %16 = load i64, ptr %5, align 8, !tbaa !11
  %17 = load ptr, ptr %6, align 8, !tbaa !13
  call void @_ZN5faiss16ProductQuantizer5trainEmPKf(ptr noundef nonnull align 8 dereferenceable(216) %15, i64 noundef %16, ptr noundef %17)
  %18 = getelementptr inbounds nuw %"struct.faiss::Index", ptr %8, i32 0, i32 5
  store i8 1, ptr %18, align 1, !tbaa !34
  %19 = getelementptr inbounds nuw %"struct.faiss::Index", ptr %8, i32 0, i32 3
  store i64 1, ptr %19, align 8, !tbaa !35
  call void @llvm.lifetime.start.p0(i64 4, ptr %7) #20
  store i32 0, ptr %7, align 4, !tbaa !36
  br label %20

20:                                               ; preds = %35, %3
  %21 = load i32, ptr %7, align 4, !tbaa !36
  %22 = sext i32 %21 to i64
  %23 = getelementptr inbounds nuw %"struct.faiss::MultiIndexQuantizer", ptr %8, i32 0, i32 1
  %24 = getelementptr inbounds nuw %"struct.faiss::ProductQuantizer", ptr %23, i32 0, i32 1
  %25 = load i64, ptr %24, align 8, !tbaa !37
  %26 = icmp ult i64 %22, %25
  br i1 %26, label %28, label %27

27:                                               ; preds = %20
  call void @llvm.lifetime.end.p0(i64 4, ptr %7) #20
  br label %38

28:                                               ; preds = %20
  %29 = getelementptr inbounds nuw %"struct.faiss::MultiIndexQuantizer", ptr %8, i32 0, i32 1
  %30 = getelementptr inbounds nuw %"struct.faiss::ProductQuantizer", ptr %29, i32 0, i32 4
  %31 = load i64, ptr %30, align 8, !tbaa !38
  %32 = getelementptr inbounds nuw %"struct.faiss::Index", ptr %8, i32 0, i32 3
  %33 = load i64, ptr %32, align 8, !tbaa !35
  %34 = mul i64 %33, %31
  store i64 %34, ptr %32, align 8, !tbaa !35
  br label %35

35:                                               ; preds = %28
  %36 = load i32, ptr %7, align 4, !tbaa !36
  %37 = add nsw i32 %36, 1
  store i32 %37, ptr %7, align 4, !tbaa !36
  br label %20, !llvm.loop !39

38:                                               ; preds = %27
  ret void
}

; Function Attrs: mustprogress uwtable
define void @_ZN5faiss20MultiIndexQuantizer25trainElPKf(ptr noundef nonnull align 8 dereferenceable(281) %0, i64 noundef %1, ptr noundef %2) unnamed_addr #1 align 2 {
  %4 = alloca ptr, align 8
  %5 = alloca i64, align 8
  %6 = alloca ptr, align 8
  %7 = alloca i32, align 4
  store ptr %0, ptr %4, align 8, !tbaa !111
  store i64 %1, ptr %5, align 8, !tbaa !11
  store ptr %2, ptr %6, align 8, !tbaa !13
  %8 = load ptr, ptr %4, align 8
  %9 = load i64, ptr %5, align 8, !tbaa !11
  %10 = load ptr, ptr %6, align 8, !tbaa !13
  call void @_ZN5faiss19MultiIndexQuantizer5trainElPKf(ptr noundef nonnull align 8 dereferenceable(256) %8, i64 noundef %9, ptr noundef %10)
  call void @llvm.lifetime.start.p0(i64 4, ptr %7) #20
  store i32 0, ptr %7, align 4, !tbaa !36
  br label %11

11:                                               ; preds = %35, %3
  %12 = load i32, ptr %7, align 4, !tbaa !36
  %13 = sext i32 %12 to i64
  %14 = getelementptr inbounds nuw %"struct.faiss::MultiIndexQuantizer", ptr %8, i32 0, i32 1
  %15 = getelementptr inbounds nuw %"struct.faiss::ProductQuantizer", ptr %14, i32 0, i32 1
  %16 = load i64, ptr %15, align 8, !tbaa !37
  %17 = icmp ult i64 %13, %16
  br i1 %17, label %19, label %18

18:                                               ; preds = %11
  call void @llvm.lifetime.end.p0(i64 4, ptr %7) #20
  br label %38

19:                                               ; preds = %11
  %20 = getelementptr inbounds nuw %"struct.faiss::MultiIndexQuantizer2", ptr %8, i32 0, i32 1
  %21 = load i32, ptr %7, align 4, !tbaa !36
  %22 = sext i32 %21 to i64
  %23 = call noundef nonnull align 8 dereferenceable(8) ptr @_ZNSt6vectorIPN5faiss5IndexESaIS2_EEixEm(ptr noundef nonnull align 8 dereferenceable(24) %20, i64 noundef %22) #20
  %24 = load ptr, ptr %23, align 8, !tbaa !113
  %25 = getelementptr inbounds nuw %"struct.faiss::MultiIndexQuantizer", ptr %8, i32 0, i32 1
  %26 = getelementptr inbounds nuw %"struct.faiss::ProductQuantizer", ptr %25, i32 0, i32 4
  %27 = load i64, ptr %26, align 8, !tbaa !38
  %28 = getelementptr inbounds nuw %"struct.faiss::MultiIndexQuantizer", ptr %8, i32 0, i32 1
  %29 = load i32, ptr %7, align 4, !tbaa !36
  %30 = sext i32 %29 to i64
  %31 = call noundef ptr @_ZN5faiss16ProductQuantizer13get_centroidsEmm(ptr noundef nonnull align 8 dereferenceable(216) %28, i64 noundef %30, i64 noundef 0)
  %32 = load ptr, ptr %24, align 8, !tbaa !9
  %33 = getelementptr inbounds ptr, ptr %32, i64 3
  %34 = load ptr, ptr %33, align 8
  call void %34(ptr noundef nonnull align 8 dereferenceable(36) %24, i64 noundef %27, ptr noundef %31)
  br label %35

35:                                               ; preds = %19
  %36 = load i32, ptr %7, align 4, !tbaa !36
  %37 = add nsw i32 %36, 1
  store i32 %37, ptr %7, align 4, !tbaa !36
  br label %11, !llvm.loop !114

38:                                               ; preds = %18
  ret void
}