; Function Attrs: mustprogress uwtable
define void @_ZN5faiss20MultiIndexQuantizer25trainElPKf(ptr noundef nonnull align 8 dereferenceable(281) initializes((96, 97)) %0, i64 noundef %1, ptr noundef %2) unnamed_addr #1 align 2 {
  %4 = getelementptr inbounds nuw i8, ptr %0, i64 24
  %5 = load i8, ptr %4, align 8, !tbaa !13, !range !20, !noundef !21
  %6 = getelementptr inbounds nuw i8, ptr %0, i64 40
  %7 = getelementptr inbounds nuw i8, ptr %0, i64 96
  store i8 %5, ptr %7, align 8, !tbaa !22
  tail call void @_ZN5faiss16ProductQuantizer5trainEmPKf(ptr noundef nonnull align 8 dereferenceable(216) %6, i64 noundef %1, ptr noundef %2)
  %8 = getelementptr inbounds nuw i8, ptr %0, i64 25
  store i8 1, ptr %8, align 1, !tbaa !32
  %9 = getelementptr inbounds nuw i8, ptr %0, i64 16
  store i64 1, ptr %9, align 8, !tbaa !33
  %10 = getelementptr inbounds nuw i8, ptr %0, i64 64
  %11 = load i64, ptr %10, align 8, !tbaa !34
  %.not.i = icmp eq i64 %11, 0
  br i1 %.not.i, label %._crit_edge, label %.lr.ph.i

.lr.ph.i:                                         ; preds = %3
  %12 = getelementptr inbounds nuw i8, ptr %0, i64 88
  %13 = load i64, ptr %12, align 8, !tbaa !35
  br label %14

14:                                               ; preds = %14, %.lr.ph.i
  %indvars.iv.i = phi i64 [ 0, %.lr.ph.i ], [ %indvars.iv.next.i, %14 ]
  %15 = phi i64 [ 1, %.lr.ph.i ], [ %16, %14 ]
  %16 = mul i64 %15, %13
  %indvars.iv.next.i = add nuw nsw i64 %indvars.iv.i, 1
  %exitcond.not.i = icmp eq i64 %indvars.iv.next.i, %11
  br i1 %exitcond.not.i, label %.lr.ph, label %14, !llvm.loop !36

.lr.ph:                                           ; preds = %14
  store i64 %16, ptr %9, align 8, !tbaa !33
  %17 = getelementptr inbounds nuw i8, ptr %0, i64 256
  %18 = getelementptr inbounds nuw i8, ptr %0, i64 88
  %19 = getelementptr inbounds nuw i8, ptr %0, i64 160
  %20 = getelementptr inbounds nuw i8, ptr %0, i64 80
  br label %21

._crit_edge:                                      ; preds = %21, %3
  ret void

21:                                               ; preds = %.lr.ph, %21
  %indvars.iv = phi i64 [ 0, %.lr.ph ], [ %indvars.iv.next, %21 ]
  %22 = load ptr, ptr %17, align 8, !tbaa !114
  %23 = getelementptr inbounds nuw ptr, ptr %22, i64 %indvars.iv
  %24 = load ptr, ptr %23, align 8, !tbaa !118
  %25 = load i64, ptr %18, align 8, !tbaa !35
  %26 = mul i64 %25, %indvars.iv
  %27 = load i64, ptr %20, align 8, !tbaa !52
  %28 = mul i64 %26, %27
  %29 = load ptr, ptr %19, align 8, !tbaa !7
  %30 = getelementptr inbounds nuw float, ptr %29, i64 %28
  %31 = load ptr, ptr %24, align 8, !tbaa !4
  %32 = getelementptr inbounds nuw i8, ptr %31, i64 24
  %33 = load ptr, ptr %32, align 8
  tail call void %33(ptr noundef nonnull align 8 dereferenceable(36) %24, i64 noundef %25, ptr noundef %30)
  %indvars.iv.next = add nuw nsw i64 %indvars.iv, 1
  %34 = load i64, ptr %10, align 8, !tbaa !34
  %35 = icmp ugt i64 %34, %indvars.iv.next
  br i1 %35, label %21, label %._crit_edge, !llvm.loop !119
}